target datalayout = "e-m:e-p270:32:32-p271:32:32-p272:64:64-i64:64-i128:128-f80:128-n8:16:32:64-S128"
target triple = "x86_64-pc-linux-gnu"

%struct.hwloc_pcidev_attr_s = type { i32, i8, i8, i8, i8, i16, i16, i16, i16, i16, i8, float }

; Function Attrs: nounwind uwtable
define ptr @hwloc_pci_find_parent_by_busid(ptr noundef %0, i32 noundef %1, i32 noundef %2, i32 noundef %3, i32 noundef %4) #0 {
  %6 = alloca ptr, align 8
  %7 = alloca ptr, align 8
  %8 = alloca i32, align 4
  %9 = alloca i32, align 4
  %10 = alloca i32, align 4
  %11 = alloca i32, align 4
  %12 = alloca %struct.hwloc_pcidev_attr_s, align 4
  %13 = alloca ptr, align 8
  %14 = alloca i32, align 4
  store ptr %0, ptr %7, align 8, !tbaa !3
  store i32 %1, ptr %8, align 4, !tbaa !40
  store i32 %2, ptr %9, align 4, !tbaa !40
  store i32 %3, ptr %10, align 4, !tbaa !40
  store i32 %4, ptr %11, align 4, !tbaa !40
  call void @llvm.lifetime.start.p0(i64 24, ptr %12) #12
  call void @llvm.lifetime.start.p0(i64 8, ptr %13) #12
  %15 = load ptr, ptr %7, align 8, !tbaa !3
  %16 = load i32, ptr %8, align 4, !tbaa !40
  %17 = load i32, ptr %9, align 4, !tbaa !40
  %18 = load i32, ptr %10, align 4, !tbaa !40
  %19 = load i32, ptr %11, align 4, !tbaa !40
  %20 = call ptr @hwloc_pci_find_by_busid(ptr noundef %15, i32 noundef %16, i32 noundef %17, i32 noundef %18, i32 noundef %19)
  store ptr %20, ptr %13, align 8, !tbaa !60
  %21 = load ptr, ptr %13, align 8, !tbaa !60
  %22 = icmp ne ptr %21, null
  br i1 %22, label %23, label %25

23:                                               ; preds = %5
  %24 = load ptr, ptr %13, align 8, !tbaa !60
  store ptr %24, ptr %6, align 8
  store i32 1, ptr %14, align 4
  br label %39

25:                                               ; preds = %5
  %26 = load i32, ptr %8, align 4, !tbaa !40
  %27 = getelementptr inbounds nuw %struct.hwloc_pcidev_attr_s, ptr %12, i32 0, i32 0
  store i32 %26, ptr %27, align 4, !tbaa !82
  %28 = load i32, ptr %9, align 4, !tbaa !40
  %29 = trunc i32 %28 to i8
  %30 = getelementptr inbounds nuw %struct.hwloc_pcidev_attr_s, ptr %12, i32 0, i32 1
  store i8 %29, ptr %30, align 4, !tbaa !86
  %31 = load i32, ptr %10, align 4, !tbaa !40
  %32 = trunc i32 %31 to i8
  %33 = getelementptr inbounds nuw %struct.hwloc_pcidev_attr_s, ptr %12, i32 0, i32 2
  store i8 %32, ptr %33, align 1, !tbaa !87
  %34 = load i32, ptr %11, align 4, !tbaa !40
  %35 = trunc i32 %34 to i8
  %36 = getelementptr inbounds nuw %struct.hwloc_pcidev_attr_s, ptr %12, i32 0, i32 3
  store i8 %35, ptr %36, align 2, !tbaa !88
  %37 = load ptr, ptr %7, align 8, !tbaa !3
  %38 = call ptr @hwloc__pci_find_busid_parent(ptr noundef %37, ptr noundef %12)
  store ptr %38, ptr %6, align 8
  store i32 1, ptr %14, align 4
  br label %39

39:                                               ; preds = %25, %23
  call void @llvm.lifetime.end.p0(i64 8, ptr %13) #12
  call void @llvm.lifetime.end.p0(i64 24, ptr %12) #12
  %40 = load ptr, ptr %6, align 8
  ret ptr %40
}