; Function Attrs: nounwind uwtable
define ptr @hwloc_pci_find_parent_by_busid(ptr noundef %0, i32 noundef %1, i32 noundef %2, i32 noundef %3, i32 noundef %4) local_unnamed_addr #1 {
  %6 = alloca %struct.hwloc_pcidev_attr_s, align 4
  call void @llvm.lifetime.start.p0(i64 24, ptr nonnull %6) #22
  %7 = tail call ptr @hwloc_pci_find_by_busid(ptr noundef %0, i32 noundef %1, i32 noundef %2, i32 noundef %3, i32 noundef %4)
  %.not = icmp eq ptr %7, null
  br i1 %.not, label %8, label %16

8:                                                ; preds = %5
  store i32 %1, ptr %6, align 4, !tbaa !78
  %9 = trunc i32 %2 to i8
  %10 = getelementptr inbounds nuw i8, ptr %6, i64 4
  store i8 %9, ptr %10, align 4, !tbaa !74
  %11 = trunc i32 %3 to i8
  %12 = getelementptr inbounds nuw i8, ptr %6, i64 5
  store i8 %11, ptr %12, align 1, !tbaa !91
  %13 = trunc i32 %4 to i8
  %14 = getelementptr inbounds nuw i8, ptr %6, i64 6
  store i8 %13, ptr %14, align 2, !tbaa !92
  %15 = call fastcc ptr @hwloc__pci_find_busid_parent(ptr noundef %0, ptr noundef nonnull %6)
  br label %16

16:                                               ; preds = %5, %8
  %.0 = phi ptr [ %15, %8 ], [ %7, %5 ]
  call void @llvm.lifetime.end.p0(i64 24, ptr nonnull %6) #22
  ret ptr %.0
}